; ModuleID = 'source-C-CXX/39/1267.c'
source_filename = "source-C-CXX/39/1267.c"
target datalayout = "e-m:e-p270:32:32-p271:32:32-p272:64:64-i64:64-f80:128-n8:16:32:64-S128"
target triple = "x86_64-pc-linux-gnu"

@.str = private unnamed_addr constant [4 x i8] c"%lf\00", align 1
@.str.1 = private unnamed_addr constant [7 x i8] c"%.4lf\0A\00", align 1
@str = private unnamed_addr constant [14 x i8] c"Invalid input\00", align 1

; Function Attrs: nofree nounwind sspstrong uwtable
define dso_local i32 @main() local_unnamed_addr #0 {
  %1 = alloca [5 x double], align 16
  %2 = bitcast [5 x double]* %1 to i8*
  call void @llvm.lifetime.start.p0i8(i64 40, i8* nonnull %2) #5
  %3 = getelementptr inbounds [5 x double], [5 x double]* %1, i64 0, i64 0
  %4 = call i32 (i8*, ...) @__isoc99_scanf(i8* getelementptr inbounds ([4 x i8], [4 x i8]* @.str, i64 0, i64 0), double* nonnull %3)
  %5 = getelementptr inbounds [5 x double], [5 x double]* %1, i64 0, i64 1
  %6 = call i32 (i8*, ...) @__isoc99_scanf(i8* getelementptr inbounds ([4 x i8], [4 x i8]* @.str, i64 0, i64 0), double* nonnull %5)
  %7 = getelementptr inbounds [5 x double], [5 x double]* %1, i64 0, i64 2
  %8 = call i32 (i8*, ...) @__isoc99_scanf(i8* getelementptr inbounds ([4 x i8], [4 x i8]* @.str, i64 0, i64 0), double* nonnull %7)
  %9 = getelementptr inbounds [5 x double], [5 x double]* %1, i64 0, i64 3
  %10 = call i32 (i8*, ...) @__isoc99_scanf(i8* getelementptr inbounds ([4 x i8], [4 x i8]* @.str, i64 0, i64 0), double* nonnull %9)
  %11 = getelementptr inbounds [5 x double], [5 x double]* %1, i64 0, i64 4
  %12 = call i32 (i8*, ...) @__isoc99_scanf(i8* getelementptr inbounds ([4 x i8], [4 x i8]* @.str, i64 0, i64 0), double* nonnull %11)
  %13 = load double, double* %3, align 16, !tbaa !5
  %14 = load double, double* %5, align 8, !tbaa !5
  %15 = load double, double* %7, align 16, !tbaa !5
  %16 = load double, double* %9, align 8, !tbaa !5
  %17 = load double, double* %11, align 16, !tbaa !5
  %18 = fadd double %13, %14
  %19 = fadd double %18, %15
  %20 = fadd double %19, %16
  %21 = fmul double %20, 5.000000e-01
  %22 = fsub double %21, %13
  %23 = fsub double %21, %14
  %24 = fmul double %22, %23
  %25 = fsub double %21, %15
  %26 = fmul double %25, %24
  %27 = fsub double %21, %16
  %28 = fmul double %27, %26
  %29 = fmul double %13, %14
  %30 = fmul double %29, %15
  %31 = fmul double %30, %16
  %32 = fmul double %17, 1.000000e+02
  %33 = fdiv double %32, 3.600000e+02
  %34 = call double @cos(double %33) #5
  %35 = fmul double %31, %34
  %36 = call double @cos(double %33) #5
  %37 = fmul double %35, %36
  %38 = fsub double %28, %37
  %39 = fcmp ult double %38, 0.000000e+00
  br i1 %39, label %43, label %40

40:                                               ; preds = %0
  %41 = call double @sqrt(double %38) #5
  %42 = call i32 (i8*, ...) @printf(i8* nonnull dereferenceable(1) getelementptr inbounds ([7 x i8], [7 x i8]* @.str.1, i64 0, i64 0), double %41) #5
  br label %45

43:                                               ; preds = %0
  %44 = call i32 @puts(i8* nonnull dereferenceable(1) getelementptr inbounds ([14 x i8], [14 x i8]* @str, i64 0, i64 0)) #5
  br label %45

45:                                               ; preds = %40, %43
  call void @llvm.lifetime.end.p0i8(i64 40, i8* nonnull %2) #5
  ret i32 0
}

; Function Attrs: argmemonly mustprogress nofree nosync nounwind willreturn
declare void @llvm.lifetime.start.p0i8(i64 immarg, i8* nocapture) #1

; Function Attrs: nofree nounwind
declare noundef i32 @__isoc99_scanf(i8* nocapture noundef readonly, ...) local_unnamed_addr #2

; Function Attrs: nofree nounwind sspstrong uwtable
define dso_local void @area(double %0, double %1, double %2, double %3, double %4) local_unnamed_addr #0 {
  %6 = fadd double %0, %1
  %7 = fadd double %6, %2
  %8 = fadd double %7, %3
  %9 = fmul double %8, 5.000000e-01
  %10 = fsub double %9, %0
  %11 = fsub double %9, %1
  %12 = fmul double %10, %11
  %13 = fsub double %9, %2
  %14 = fmul double %13, %12
  %15 = fsub double %9, %3
  %16 = fmul double %15, %14
  %17 = fmul double %0, %1
  %18 = fmul double %17, %2
  %19 = fmul double %18, %3
  %20 = fmul double %4, 1.000000e+02
  %21 = fdiv double %20, 3.600000e+02
  %22 = tail call double @cos(double %21) #5
  %23 = fmul double %19, %22
  %24 = tail call double @cos(double %21) #5
  %25 = fmul double %23, %24
  %26 = fsub double %16, %25
  %27 = fcmp ult double %26, 0.000000e+00
  br i1 %27, label %31, label %28

28:                                               ; preds = %5
  %29 = tail call double @sqrt(double %26) #5
  %30 = tail call i32 (i8*, ...) @printf(i8* nonnull dereferenceable(1) getelementptr inbounds ([7 x i8], [7 x i8]* @.str.1, i64 0, i64 0), double %29)
  br label %33

31:                                               ; preds = %5
  %32 = tail call i32 @puts(i8* nonnull dereferenceable(1) getelementptr inbounds ([14 x i8], [14 x i8]* @str, i64 0, i64 0))
  br label %33

33:                                               ; preds = %31, %28
  ret void
}

; Function Attrs: argmemonly mustprogress nofree nosync nounwind willreturn
declare void @llvm.lifetime.end.p0i8(i64 immarg, i8* nocapture) #1

; Function Attrs: mustprogress nofree nounwind willreturn
declare double @cos(double) local_unnamed_addr #3

; Function Attrs: mustprogress nofree nounwind willreturn
declare double @sqrt(double) local_unnamed_addr #3

; Function Attrs: nofree nounwind
declare noundef i32 @printf(i8* nocapture noundef readonly, ...) local_unnamed_addr #2

; Function Attrs: nofree nounwind
declare noundef i32 @puts(i8* nocapture noundef readonly) local_unnamed_addr #4


!llvm.module.flags = !{!0, !1, !2, !3}
!llvm.ident = !{!4}

!0 = !{i32 1, !"wchar_size", i32 4}
!1 = !{i32 7, !"PIC Level", i32 2}
!2 = !{i32 7, !"PIE Level", i32 2}
!3 = !{i32 7, !"uwtable", i32 1}
!4 = !{!"clang version 13.0.0"}
!5 = !{!6, !6, i64 0}
!6 = !{!"double", !7, i64 0}
!7 = !{!"omnipotent char", !8, i64 0}
!8 = !{!"Simple C/C++ TBAA"}
